; Function Attrs: mustprogress uwtable
define hidden noundef nonnull ptr @ncnn_mat_clone(ptr noundef %0, ptr noundef readonly %1) local_unnamed_addr #1 personality ptr @__gxx_personality_v0 {
  %3 = tail call noalias noundef nonnull dereferenceable(72) ptr @_Znwm(i64 noundef 72) #24
  %.not = icmp eq ptr %1, null
  br i1 %.not, label %6, label %4

4:                                                ; preds = %2
  %5 = load ptr, ptr %1, align 8
  br label %6

6:                                                ; preds = %2, %4
  %7 = phi ptr [ %5, %4 ], [ null, %2 ]
  invoke void @_ZNK4ncnn3Mat5cloneEPNS_9AllocatorE(ptr dead_on_unwind nonnull writable sret(%"class.ncnn::Mat") align 8 %3, ptr noundef nonnull align 8 dereferenceable(72) %0, ptr noundef %7)
          to label %8 unwind label %9

8:                                                ; preds = %6
  ret ptr %3

9:                                                ; preds = %6
  %10 = landingpad { ptr, i32 }
          cleanup
  tail call void @_ZdlPvm(ptr noundef nonnull %3, i64 noundef 72) #25
  resume { ptr, i32 } %10
}